(dp0
I0
(dp1
I0
(dp2
S'text'
p3
S'AT_USER AT_USER thank you team AT_USER for making me winner of pagalpanti movie contest. plz dm for deails uh need'
p4
sS'tweet'
p5
g4
sS'label'
p6
S'positive'
p7
ssI1
(dp8
g3
S'wanted to watch pagalpanti movie then i saw hrithik roshan in "bimar hua dil" song. then it was "sorry i even planned". urvashirautela'
p9
sg5
g9
sg6
S'neutral'
p10
ssI2
(dp11
g3
S'AT_USER that movie ahhh kriti is love downloaded some pagalpanti movie for timepass she was there in that'
p12
sg5
g12
sg6
g7
ssI3
(dp13
g3
S'AT_USER AT_USER how is pagalpanti movie'
p14
sg5
g14
sg6
g10
ssI4
(dp15
g3
S'rt AT_USER watching pagalpanti movie.AT_USER AT_USER AT_USER AT_USER AT_USER AT_USER '
p16
sg5
g16
sg6
g10
ssI5
(dp17
g3
S'life of a business developer audio credit: pagalpanti movie funfriday memes bollywoodmemes funny URL'
p18
sg5
g18
sg6
g7
ssI6
(dp19
g3
S'pagalpanti movie is a complete package of laughter.after that we want pagalpanti2 also should be made.first time URL'
p20
sg5
g20
sg6
g7
ssI7
(dp21
g3
S'pagalpanti movie review : a cartoon movie for toddlers. AT_USER AT_USER AT_USER AT_USER URL'
p22
sg5
g22
sg6
g10
ssI8
(dp23
g3
S'watching pagalpanti movie.AT_USER AT_USER AT_USER AT_USER AT_USER URL'
p24
sg5
g24
sg6
g10
ssI9
(dp25
g3
S'think of that! niraj modi stacks riches stolen in sercret cell of bungalow, n to keep people away he creates haunte URL'
p26
sg5
g26
sg6
g10
ssI10
(dp27
g3
S'pagalpanti movie review by me/latest movie/john abraham,anil, pulkit, ur... URL via AT_USER'
p28
sg5
g28
sg6
g10
ssI11
(dp29
g3
S'AT_USER AT_USER they both are enjoying pagalpanti movie lol'
p30
sg5
g30
sg6
g7
ssI12
(dp31
g3
S'today is most beautiful moment in my life,i am see in pagalpanti movie  URL'
p32
sg5
g32
sg6
g7
ssI13
(dp33
g3
S"rt AT_USER AT_USER AT_USER woo! guy's you are 1 step down to win ! pagalpanti movie tickets ! participate here with AT_USER"
p34
sg5
g34
sg6
g7
ssI14
(dp35
g3
S'rt AT_USER on the sets of pagalpanti movie- set designing. setdesiging movieset designing productiondesigning movieclimaxshoot pa'
p36
sg5
g36
sg6
g10
ssI15
(dp37
g3
S'AT_USER john bhai please make force 3...tiger make baaghi 3 and vidyut make commondo URL'
p38
sg5
g38
sg6
g7
ssI16
(dp39
g3
S'on the sets of pagalpanti movie- set designing. setdesiging movieset designing productiondesigning URL'
p40
sg5
g40
sg6
g10
ssI17
(dp41
g3
S'this tweet from AT_USER has been withheld in response to a report from the copyright holder. learn more.'
p42
sg5
g42
sg6
g10
ssI18
(dp43
g3
S"AT_USER AT_USER woo! guy's you are 1 step down to win ! pagalpanti movie tickets ! participate here with URL"
p44
sg5
g44
sg6
g7
ssI19
(dp45
g3
S'rt AT_USER AT_USER AT_USER done dana done! downloaded the pagalpanti album on AT_USER AT_USER wynkmusic AT_USER tseri'
p46
sg5
g46
sg6
g10
ssI20
(dp47
g3
S'AT_USER AT_USER done dana done! downloaded the pagalpanti album on AT_USER AT_USER wynkmusic AT_USER URL'
p48
sg5
g48
sg6
g10
ssI21
(dp49
g3
S'AT_USER AT_USER downloaded the pagalpanti album on AT_USER AT_USER wynkmusic AT_USER tseries URL'
p50
sg5
g50
sg6
g10
ssI22
(dp51
g3
S'AT_USER even pagalpanti movie will not be so insane. maha politics.'
p52
sg5
g52
sg6
S'negative'
p53
ssI23
(dp54
g3
S'pagalpanti movie review : a hotchpotch of blundering characters read more : URL URL'
p55
sg5
g55
sg6
g10
ssI24
(dp56
g3
S'rt AT_USER pagalpanti review: in the hands of someone sensible director, in these times of nirav modi and the pmc bank fraud case'
p57
sg5
g57
sg6
g7
ssI25
(dp58
g3
S'i dont know why pagalpanti movie has received worst review all over, as i think its better than housefull4 '
p59
sg5
g59
sg6
g53
ssI26
(dp60
g3
S'pagalpanti movie public review | angry review | first day first showreview URL URL'
p61
sg5
g61
sg6
g53
ssI27
(dp62
g3
S'rt AT_USER new song coming from pagalpanti movie song: dilmera singer: arijitsingh &amp; shreyaghoshal music: sajidwajid lyrics:'
p63
sg5
g63
sg6
g10
ssI28
(dp64
g3
S'rt AT_USER AT_USER mam you are looking so beautiful and your smile is so cute and today i am watching pagalpanti movie to s'
p65
sg5
g65
sg6
g7
ssI29
(dp66
g3
S'AT_USER mam you are looking so beautiful and your smile is so cute and today i am watching pagalpanti movi URL'
p67
sg5
g67
sg6
g7
ssI30
(dp68
g3
S'rt AT_USER troll : didi yeh kya pagal panti hai ? taapsee panu: pagalpanti movie hai. newsmedia: check out how taapsee panu gav'
p69
sg5
g69
sg6
g10
ssI31
(dp70
g3
S'rt AT_USER beautiful kritikharbanda during the promotion of pagalpanti movie  URL'
p71
sg5
g71
sg6
g7
ssI32
(dp72
g3
S'pagalpanti  movie review | housefull 4 comparison URL URL'
p73
sg5
g73
sg6
g10
ssI33
(dp74
g3
S'sir pagalpanti movie youtube pr leak ho gai hai AT_USER AT_USER URL'
p75
sg5
g75
sg6
g10
ssI34
(dp76
g3
S'pagalpanti movie review: only thing missing from this comedy isfun! URL URL'
p77
sg5
g77
sg6
g10
ssI35
(dp78
g3
S'pagalpanti movie at # AT_USER at nallasopara AT_USER URL'
p79
sg5
g79
sg6
g10
ssI36
(dp80
g3
S'pagalpanti movie review/unique review india/budhadeo vishwakarma URL via AT_USER'
p81
sg5
g81
sg6
g7
ssI37
(dp82
g3
S'just saw AT_USER movie most wrost waste off money and waste off time  today i promise i am not watch anees baz URL'
p83
sg5
g83
sg6
g10
ssI38
(dp84
g3
S'rt AT_USER today sunday your fun day pagalpantinowincinemas go and watch a family entertainment pagalpanti movie your nearest the'
p85
sg5
g85
sg6
g7
sss.